target datalayout = "e-m:e-p270:32:32-p271:32:32-p272:64:64-i64:64-i128:128-f80:128-n8:16:32:64-S128"
target triple = "x86_64-pc-linux-gnu"

%class.QModelIndex = type { i32, i32, i64, ptr }
%class.QObject = type { ptr, %class.QScopedPointer }
%class.QScopedPointer = type { ptr }
%class.QPaintDevice.base = type <{ ptr, i16 }>
%class.QList.9 = type { %struct.QArrayDataPointer.12 }
%struct.QArrayDataPointer.12 = type { ptr, ptr, i64 }
%class.PacketList = type { %class.QTreeView, ptr, ptr, ptr, ptr, %class.QMenu, %class.QMenu, %class.QMenu, i32, %class.QByteArray, ptr, i32, i8, i8, %class.QList, i8, %class.QModelIndex, %class.RelatedPacketDelegate, ptr, %class.QList.1, i8, i8, i8, i8, i8, %class.QModelIndex, %class.QList.5, %class.QList.9, i32, i8, ptr }
%class.QTreeView = type { %class.QAbstractItemView }
%class.QAbstractItemView = type { %class.QAbstractScrollArea }
%class.QAbstractScrollArea = type { %class.QFrame }
%class.QFrame = type { %class.QWidget }
%class.QWidget = type { %class.QObject, %class.QPaintDevice.base, ptr }
%class.QMenu = type { %class.QWidget }
%class.QByteArray = type { %struct.QArrayDataPointer }
%struct.QArrayDataPointer = type { ptr, ptr, i64 }
%class.QList = type { %struct.QArrayDataPointer.0 }
%struct.QArrayDataPointer.0 = type { ptr, ptr, i64 }
%class.RelatedPacketDelegate = type <{ %class.QStyledItemDelegate, %class.QHash, ptr, i32, [4 x i8] }>
%class.QStyledItemDelegate = type { %class.QAbstractItemDelegate }
%class.QAbstractItemDelegate = type { %class.QObject }
%class.QHash = type { ptr }
%class.QList.1 = type { %struct.QArrayDataPointer.4 }
%struct.QArrayDataPointer.4 = type { ptr, ptr, i64 }
%class.QList.5 = type { %struct.QArrayDataPointer.8 }
%struct.QArrayDataPointer.8 = type { ptr, ptr, i64 }

; Function Attrs: mustprogress nounwind uwtable
define linkonce_odr noundef ptr @_ZNK17QArrayDataPointerIiE4dataEv(ptr noundef nonnull align 8 dereferenceable(24) %0) #2 comdat align 2 {
  %2 = alloca ptr, align 8
  store ptr %0, ptr %2, align 8
  %3 = load ptr, ptr %2, align 8
  %4 = getelementptr inbounds %struct.QArrayDataPointer.12, ptr %3, i32 0, i32 1
  %5 = load ptr, ptr %4, align 8
  ret ptr %5
}

; Function Attrs: mustprogress nounwind uwtable
define linkonce_odr noundef ptr @_ZNK5QListIiE4dataEv(ptr noundef nonnull align 8 dereferenceable(24) %0) #2 comdat align 2 {
  %2 = alloca ptr, align 8
  store ptr %0, ptr %2, align 8
  %3 = load ptr, ptr %2, align 8
  %4 = getelementptr inbounds %class.QList.9, ptr %3, i32 0, i32 0
  %5 = call noundef ptr @_ZNK17QArrayDataPointerIiEptEv(ptr noundef nonnull align 8 dereferenceable(24) %4) #16
  %6 = call noundef ptr @_ZNK17QArrayDataPointerIiE4dataEv(ptr noundef nonnull align 8 dereferenceable(24) %5) #16
  ret ptr %6
}

; Function Attrs: mustprogress nounwind uwtable
define linkonce_odr noundef ptr @_ZNK17QArrayDataPointerIiEptEv(ptr noundef nonnull align 8 dereferenceable(24) %0) #2 comdat align 2 {
  %2 = alloca ptr, align 8
  store ptr %0, ptr %2, align 8
  %3 = load ptr, ptr %2, align 8
  ret ptr %3
}

; Function Attrs: mustprogress nounwind uwtable
define linkonce_odr noundef nonnull align 4 dereferenceable(4) ptr @_ZNK5QListIiE2atEx(ptr noundef nonnull align 8 dereferenceable(24) %0, i64 noundef %1) #2 comdat align 2 {
  %3 = alloca ptr, align 8
  %4 = alloca i64, align 8
  store ptr %0, ptr %3, align 8
  store i64 %1, ptr %4, align 8
  %5 = load ptr, ptr %3, align 8
  %6 = call noundef ptr @_ZNK5QListIiE4dataEv(ptr noundef nonnull align 8 dereferenceable(24) %5) #16
  %7 = load i64, ptr %4, align 8
  %8 = getelementptr i32, ptr %6, i64 %7
  ret ptr %8
}

; Function Attrs: mustprogress nounwind uwtable
define linkonce_odr noundef i64 @_ZNK5QListIiE4sizeEv(ptr noundef nonnull align 8 dereferenceable(24) %0) #2 comdat align 2 {
  %2 = alloca ptr, align 8
  store ptr %0, ptr %2, align 8
  %3 = load ptr, ptr %2, align 8
  %4 = getelementptr inbounds %class.QList.9, ptr %3, i32 0, i32 0
  %5 = call noundef ptr @_ZNK17QArrayDataPointerIiEptEv(ptr noundef nonnull align 8 dereferenceable(24) %4) #16
  %6 = getelementptr inbounds %struct.QArrayDataPointer.12, ptr %5, i32 0, i32 2
  %7 = load i64, ptr %6, align 8
  ret i64 %7
}

; Function Attrs: mustprogress uwtable
define noundef zeroext i1 @_ZN10PacketList15haveNextHistoryEb(ptr noundef nonnull align 8 dereferenceable(464) %0, i1 noundef zeroext %1) #0 align 2 {
  %3 = alloca i1, align 1
  %4 = alloca ptr, align 8
  %5 = alloca i8, align 1
  %6 = alloca i32, align 4
  store ptr %0, ptr %4, align 8
  %7 = zext i1 %1 to i8
  store i8 %7, ptr %5, align 1
  %8 = load ptr, ptr %4, align 8
  %9 = getelementptr inbounds %class.PacketList, ptr %8, i32 0, i32 27
  %10 = call noundef i64 @_ZNK5QListIiE4sizeEv(ptr noundef nonnull align 8 dereferenceable(24) %9) #16
  %11 = icmp slt i64 %10, 1
  br i1 %11, label %20, label %12

12:                                               ; preds = %2
  %13 = getelementptr inbounds %class.PacketList, ptr %8, i32 0, i32 28
  %14 = load i32, ptr %13, align 8
  %15 = sext i32 %14 to i64
  %16 = getelementptr inbounds %class.PacketList, ptr %8, i32 0, i32 27
  %17 = call noundef i64 @_ZNK5QListIiE4sizeEv(ptr noundef nonnull align 8 dereferenceable(24) %16) #16
  %18 = sub i64 %17, 1
  %19 = icmp sge i64 %15, %18
  br i1 %19, label %20, label %21

20:                                               ; preds = %12, %2
  store i1 false, ptr %3, align 1
  br label %53

21:                                               ; preds = %12
  %22 = getelementptr inbounds %class.PacketList, ptr %8, i32 0, i32 28
  %23 = load i32, ptr %22, align 8
  %24 = add i32 %23, 1
  store i32 %24, ptr %6, align 4
  br label %25

25:                                               ; preds = %49, %21
  %26 = load i32, ptr %6, align 4
  %27 = sext i32 %26 to i64
  %28 = getelementptr inbounds %class.PacketList, ptr %8, i32 0, i32 27
  %29 = call noundef i64 @_ZNK5QListIiE4sizeEv(ptr noundef nonnull align 8 dereferenceable(24) %28) #16
  %30 = icmp slt i64 %27, %29
  br i1 %30, label %31, label %52

31:                                               ; preds = %25
  %32 = getelementptr inbounds %class.PacketList, ptr %8, i32 0, i32 1
  %33 = load ptr, ptr %32, align 8
  %34 = getelementptr inbounds %class.PacketList, ptr %8, i32 0, i32 27
  %35 = load i32, ptr %6, align 4
  %36 = sext i32 %35 to i64
  %37 = call noundef nonnull align 4 dereferenceable(4) ptr @_ZNK5QListIiE2atEx(ptr noundef nonnull align 8 dereferenceable(24) %34, i64 noundef %36) #16
  %38 = load i32, ptr %37, align 4
  %39 = call noundef i32 @_ZNK15PacketListModel17packetNumberToRowEi(ptr noundef nonnull align 8 dereferenceable(164) %33, i32 noundef %38)
  %40 = icmp sge i32 %39, 0
  br i1 %40, label %41, label %48

41:                                               ; preds = %31
  %42 = load i8, ptr %5, align 1
  %43 = trunc i8 %42 to i1
  br i1 %43, label %44, label %47

44:                                               ; preds = %41
  %45 = load i32, ptr %6, align 4
  %46 = getelementptr inbounds %class.PacketList, ptr %8, i32 0, i32 28
  store i32 %45, ptr %46, align 8
  br label %47

47:                                               ; preds = %44, %41
  store i1 true, ptr %3, align 1
  br label %53

48:                                               ; preds = %31
  br label %49

49:                                               ; preds = %48
  %50 = load i32, ptr %6, align 4
  %51 = add i32 %50, 1
  store i32 %51, ptr %6, align 4
  br label %25, !llvm.loop !38

52:                                               ; preds = %25
  store i1 false, ptr %3, align 1
  br label %53

53:                                               ; preds = %52, %47, %20
  %54 = load i1, ptr %3, align 1
  ret i1 %54
}