; Function Attrs: mustprogress uwtable
define noundef zeroext i1 @_ZN10PacketList15haveNextHistoryEb(ptr nocapture noundef nonnull align 8 dereferenceable(464) %0, i1 noundef zeroext %1) local_unnamed_addr #0 align 2 {
  %3 = getelementptr inbounds i8, ptr %0, i64 440
  %4 = load i64, ptr %3, align 8
  %5 = icmp slt i64 %4, 1
  br i1 %5, label %.loopexit, label %6

6:                                                ; preds = %2
  %7 = getelementptr inbounds i8, ptr %0, i64 448
  %8 = load i32, ptr %7, align 8
  %9 = sext i32 %8 to i64
  %10 = add nsw i64 %4, -1
  %.not = icmp sgt i64 %10, %9
  br i1 %.not, label %.preheader, label %.loopexit

.preheader:                                       ; preds = %6
  %11 = getelementptr inbounds i8, ptr %0, i64 40
  %12 = getelementptr inbounds i8, ptr %0, i64 432
  br label %13

13:                                               ; preds = %.preheader, %17
  %.0.in = phi i32 [ %.0, %17 ], [ %8, %.preheader ]
  %.0 = add i32 %.0.in, 1
  %14 = sext i32 %.0 to i64
  %15 = load i64, ptr %3, align 8
  %16 = icmp sgt i64 %15, %14
  br i1 %16, label %17, label %.loopexit

17:                                               ; preds = %13
  %18 = load ptr, ptr %11, align 8
  %19 = load ptr, ptr %12, align 8
  %20 = getelementptr i32, ptr %19, i64 %14
  %21 = load i32, ptr %20, align 4
  %22 = tail call noundef i32 @_ZNK15PacketListModel17packetNumberToRowEi(ptr noundef nonnull align 8 dereferenceable(164) %18, i32 noundef %21)
  %23 = icmp sgt i32 %22, -1
  br i1 %23, label %24, label %13, !llvm.loop !176

24:                                               ; preds = %17
  br i1 %1, label %25, label %.loopexit

25:                                               ; preds = %24
  store i32 %.0, ptr %7, align 8
  br label %.loopexit

.loopexit:                                        ; preds = %13, %24, %25, %2, %6
  %.06 = phi i1 [ false, %6 ], [ false, %2 ], [ true, %25 ], [ true, %24 ], [ false, %13 ]
  ret i1 %.06
}